target datalayout = "e-m:e-p270:32:32-p271:32:32-p272:64:64-i64:64-i128:128-f80:128-n8:16:32:64-S128"
target triple = "x86_64-pc-linux-gnu"

%"class.YAML::EmitFromEvents" = type { %"class.YAML::EventHandler", ptr, %"class.std::stack" }
%"class.YAML::EventHandler" = type { ptr }
%"class.std::stack" = type { %"class.std::deque" }
%"class.std::deque" = type { %"class.std::_Deque_base" }
%"class.std::_Deque_base" = type { %"struct.std::_Deque_base<YAML::EmitFromEvents::State::value, std::allocator<YAML::EmitFromEvents::State::value>>::_Deque_impl" }
%"struct.std::_Deque_base<YAML::EmitFromEvents::State::value, std::allocator<YAML::EmitFromEvents::State::value>>::_Deque_impl" = type { %"struct.std::_Deque_base<YAML::EmitFromEvents::State::value, std::allocator<YAML::EmitFromEvents::State::value>>::_Deque_impl_data" }
%"struct.std::_Deque_base<YAML::EmitFromEvents::State::value, std::allocator<YAML::EmitFromEvents::State::value>>::_Deque_impl_data" = type { ptr, i64, %"struct.std::_Deque_iterator", %"struct.std::_Deque_iterator" }
%"struct.std::_Deque_iterator" = type { ptr, ptr, ptr, ptr }

; Function Attrs: mustprogress nounwind uwtable
define linkonce_odr void @_ZNSt15__new_allocatorIN4YAML14EmitFromEvents5State5valueEE10deallocateEPS3_m(ptr noundef nonnull align 1 dereferenceable(1) %0, ptr noundef %1, i64 noundef %2) #2 comdat align 2 {
  %4 = alloca ptr, align 8
  %5 = alloca ptr, align 8
  %6 = alloca i64, align 8
  store ptr %0, ptr %4, align 8, !tbaa !150
  store ptr %1, ptr %5, align 8, !tbaa !49
  store i64 %2, ptr %6, align 8, !tbaa !18
  %7 = load ptr, ptr %5, align 8, !tbaa !49
  call void @_ZdlPv(ptr noundef %7) #19
  ret void
}

; Function Attrs: mustprogress nounwind uwtable
define linkonce_odr noundef i64 @_ZNSt15_Deque_iteratorIN4YAML14EmitFromEvents5State5valueERS3_PS3_E14_S_buffer_sizeEv() #2 comdat align 2 {
  %1 = call noundef i64 @_ZSt16__deque_buf_sizem(i64 noundef 4)
  ret i64 %1
}

; Function Attrs: mustprogress uwtable
define linkonce_odr void @_ZNSt16allocator_traitsISaIN4YAML14EmitFromEvents5State5valueEEE10deallocateERS4_PS3_m(ptr noundef nonnull align 1 dereferenceable(1) %0, ptr noundef %1, i64 noundef %2) #0 comdat align 2 {
  %4 = alloca ptr, align 8
  %5 = alloca ptr, align 8
  %6 = alloca i64, align 8
  store ptr %0, ptr %4, align 8, !tbaa !136
  store ptr %1, ptr %5, align 8, !tbaa !49
  store i64 %2, ptr %6, align 8, !tbaa !18
  %7 = load ptr, ptr %4, align 8, !tbaa !136
  %8 = load ptr, ptr %5, align 8, !tbaa !49
  %9 = load i64, ptr %6, align 8, !tbaa !18
  call void @_ZNSt15__new_allocatorIN4YAML14EmitFromEvents5State5valueEE10deallocateEPS3_m(ptr noundef nonnull align 1 dereferenceable(1) %7, ptr noundef %8, i64 noundef %9)
  ret void
}

; Function Attrs: inlinehint mustprogress nounwind uwtable
define linkonce_odr noundef i64 @_ZSt16__deque_buf_sizem(i64 noundef %0) #1 comdat {
  %2 = alloca i64, align 8
  store i64 %0, ptr %2, align 8, !tbaa !18
  %3 = load i64, ptr %2, align 8, !tbaa !18
  %4 = icmp ult i64 %3, 512
  br i1 %4, label %5, label %8

5:                                                ; preds = %1
  %6 = load i64, ptr %2, align 8, !tbaa !18
  %7 = udiv i64 512, %6
  br label %9

8:                                                ; preds = %1
  br label %9

9:                                                ; preds = %8, %5
  %10 = phi i64 [ %7, %5 ], [ 1, %8 ]
  ret i64 %10
}

; Function Attrs: mustprogress nounwind uwtable
define linkonce_odr void @_ZNSt15_Deque_iteratorIN4YAML14EmitFromEvents5State5valueERS3_PS3_E11_M_set_nodeEPS5_(ptr noundef nonnull align 8 dereferenceable(32) %0, ptr noundef %1) #2 comdat align 2 {
  %3 = alloca ptr, align 8
  %4 = alloca ptr, align 8
  store ptr %0, ptr %3, align 8, !tbaa !134
  store ptr %1, ptr %4, align 8, !tbaa !102
  %5 = load ptr, ptr %3, align 8
  %6 = load ptr, ptr %4, align 8, !tbaa !102
  %7 = getelementptr inbounds nuw %"struct.std::_Deque_iterator", ptr %5, i32 0, i32 3
  store ptr %6, ptr %7, align 8, !tbaa !147
  %8 = load ptr, ptr %4, align 8, !tbaa !102
  %9 = load ptr, ptr %8, align 8, !tbaa !49
  %10 = getelementptr inbounds nuw %"struct.std::_Deque_iterator", ptr %5, i32 0, i32 1
  store ptr %9, ptr %10, align 8, !tbaa !145
  %11 = getelementptr inbounds nuw %"struct.std::_Deque_iterator", ptr %5, i32 0, i32 1
  %12 = load ptr, ptr %11, align 8, !tbaa !145
  %13 = call noundef i64 @_ZNSt15_Deque_iteratorIN4YAML14EmitFromEvents5State5valueERS3_PS3_E14_S_buffer_sizeEv() #16
  %14 = getelementptr inbounds i32, ptr %12, i64 %13
  %15 = getelementptr inbounds nuw %"struct.std::_Deque_iterator", ptr %5, i32 0, i32 2
  store ptr %14, ptr %15, align 8, !tbaa !146
  ret void
}

; Function Attrs: mustprogress nounwind uwtable
define linkonce_odr void @_ZNSt11_Deque_baseIN4YAML14EmitFromEvents5State5valueESaIS3_EE18_M_deallocate_nodeEPS3_(ptr noundef nonnull align 8 dereferenceable(80) %0, ptr noundef %1) #2 comdat align 2 personality ptr @__gxx_personality_v0 {
  %3 = alloca ptr, align 8
  %4 = alloca ptr, align 8
  store ptr %0, ptr %3, align 8, !tbaa !138
  store ptr %1, ptr %4, align 8, !tbaa !49
  %5 = load ptr, ptr %3, align 8
  %6 = getelementptr inbounds nuw %"class.std::_Deque_base", ptr %5, i32 0, i32 0
  %7 = load ptr, ptr %4, align 8, !tbaa !49
  %8 = invoke noundef i64 @_ZSt16__deque_buf_sizem(i64 noundef 4)
          to label %9 unwind label %11

9:                                                ; preds = %2
  invoke void @_ZNSt16allocator_traitsISaIN4YAML14EmitFromEvents5State5valueEEE10deallocateERS4_PS3_m(ptr noundef nonnull align 1 dereferenceable(1) %6, ptr noundef %7, i64 noundef %8)
          to label %10 unwind label %11

10:                                               ; preds = %9
  ret void

11:                                               ; preds = %9, %2
  %12 = landingpad { ptr, i32 }
          catch ptr null
  %13 = extractvalue { ptr, i32 } %12, 0
  call void @__clang_call_terminate(ptr %13) #18
  unreachable
}

; Function Attrs: mustprogress nounwind uwtable
define linkonce_odr void @_ZNSt15__new_allocatorIN4YAML14EmitFromEvents5State5valueEE7destroyIS3_EEvPT_(ptr noundef nonnull align 1 dereferenceable(1) %0, ptr noundef %1) #2 comdat align 2 {
  %3 = alloca ptr, align 8
  %4 = alloca ptr, align 8
  store ptr %0, ptr %3, align 8, !tbaa !150
  store ptr %1, ptr %4, align 8, !tbaa !49
  ret void
}

; Function Attrs: noinline noreturn nounwind uwtable
define linkonce_odr hidden void @__clang_call_terminate(ptr noundef %0) #8 comdat {
  %2 = call ptr @__cxa_begin_catch(ptr %0) #16
  call void @_ZSt9terminatev() #18
  unreachable
}

; Function Attrs: mustprogress nounwind uwtable
define linkonce_odr void @_ZNSt5dequeIN4YAML14EmitFromEvents5State5valueESaIS3_EE15_M_pop_back_auxEv(ptr noundef nonnull align 8 dereferenceable(80) %0) #2 comdat align 2 {
  %2 = alloca ptr, align 8
  store ptr %0, ptr %2, align 8, !tbaa !132
  %3 = load ptr, ptr %2, align 8
  %4 = getelementptr inbounds nuw %"class.std::_Deque_base", ptr %3, i32 0, i32 0
  %5 = getelementptr inbounds nuw %"struct.std::_Deque_base<YAML::EmitFromEvents::State::value, std::allocator<YAML::EmitFromEvents::State::value>>::_Deque_impl_data", ptr %4, i32 0, i32 3
  %6 = getelementptr inbounds nuw %"struct.std::_Deque_iterator", ptr %5, i32 0, i32 1
  %7 = load ptr, ptr %6, align 8, !tbaa !164
  call void @_ZNSt11_Deque_baseIN4YAML14EmitFromEvents5State5valueESaIS3_EE18_M_deallocate_nodeEPS3_(ptr noundef nonnull align 8 dereferenceable(80) %3, ptr noundef %7) #16
  %8 = getelementptr inbounds nuw %"class.std::_Deque_base", ptr %3, i32 0, i32 0
  %9 = getelementptr inbounds nuw %"struct.std::_Deque_base<YAML::EmitFromEvents::State::value, std::allocator<YAML::EmitFromEvents::State::value>>::_Deque_impl_data", ptr %8, i32 0, i32 3
  %10 = getelementptr inbounds nuw %"class.std::_Deque_base", ptr %3, i32 0, i32 0
  %11 = getelementptr inbounds nuw %"struct.std::_Deque_base<YAML::EmitFromEvents::State::value, std::allocator<YAML::EmitFromEvents::State::value>>::_Deque_impl_data", ptr %10, i32 0, i32 3
  %12 = getelementptr inbounds nuw %"struct.std::_Deque_iterator", ptr %11, i32 0, i32 3
  %13 = load ptr, ptr %12, align 8, !tbaa !142
  %14 = getelementptr inbounds ptr, ptr %13, i64 -1
  call void @_ZNSt15_Deque_iteratorIN4YAML14EmitFromEvents5State5valueERS3_PS3_E11_M_set_nodeEPS5_(ptr noundef nonnull align 8 dereferenceable(32) %9, ptr noundef %14) #16
  %15 = getelementptr inbounds nuw %"class.std::_Deque_base", ptr %3, i32 0, i32 0
  %16 = getelementptr inbounds nuw %"struct.std::_Deque_base<YAML::EmitFromEvents::State::value, std::allocator<YAML::EmitFromEvents::State::value>>::_Deque_impl_data", ptr %15, i32 0, i32 3
  %17 = getelementptr inbounds nuw %"struct.std::_Deque_iterator", ptr %16, i32 0, i32 2
  %18 = load ptr, ptr %17, align 8, !tbaa !171
  %19 = getelementptr inbounds i32, ptr %18, i64 -1
  %20 = getelementptr inbounds nuw %"class.std::_Deque_base", ptr %3, i32 0, i32 0
  %21 = getelementptr inbounds nuw %"struct.std::_Deque_base<YAML::EmitFromEvents::State::value, std::allocator<YAML::EmitFromEvents::State::value>>::_Deque_impl_data", ptr %20, i32 0, i32 3
  %22 = getelementptr inbounds nuw %"struct.std::_Deque_iterator", ptr %21, i32 0, i32 0
  store ptr %19, ptr %22, align 8, !tbaa !165
  %23 = call noundef nonnull align 1 dereferenceable(1) ptr @_ZNSt11_Deque_baseIN4YAML14EmitFromEvents5State5valueESaIS3_EE19_M_get_Tp_allocatorEv(ptr noundef nonnull align 8 dereferenceable(80) %3) #16
  %24 = getelementptr inbounds nuw %"class.std::_Deque_base", ptr %3, i32 0, i32 0
  %25 = getelementptr inbounds nuw %"struct.std::_Deque_base<YAML::EmitFromEvents::State::value, std::allocator<YAML::EmitFromEvents::State::value>>::_Deque_impl_data", ptr %24, i32 0, i32 3
  %26 = getelementptr inbounds nuw %"struct.std::_Deque_iterator", ptr %25, i32 0, i32 0
  %27 = load ptr, ptr %26, align 8, !tbaa !165
  call void @_ZNSt16allocator_traitsISaIN4YAML14EmitFromEvents5State5valueEEE7destroyIS3_EEvRS4_PT_(ptr noundef nonnull align 1 dereferenceable(1) %23, ptr noundef %27) #16
  ret void
}

; Function Attrs: mustprogress nounwind uwtable
define linkonce_odr void @_ZNSt16allocator_traitsISaIN4YAML14EmitFromEvents5State5valueEEE7destroyIS3_EEvRS4_PT_(ptr noundef nonnull align 1 dereferenceable(1) %0, ptr noundef %1) #2 comdat align 2 {
  %3 = alloca ptr, align 8
  %4 = alloca ptr, align 8
  store ptr %0, ptr %3, align 8, !tbaa !136
  store ptr %1, ptr %4, align 8, !tbaa !49
  %5 = load ptr, ptr %3, align 8, !tbaa !136
  %6 = load ptr, ptr %4, align 8, !tbaa !49
  call void @_ZNSt15__new_allocatorIN4YAML14EmitFromEvents5State5valueEE7destroyIS3_EEvPT_(ptr noundef nonnull align 1 dereferenceable(1) %5, ptr noundef %6) #16
  ret void
}

; Function Attrs: mustprogress nounwind uwtable
define linkonce_odr noundef nonnull align 1 dereferenceable(1) ptr @_ZNSt11_Deque_baseIN4YAML14EmitFromEvents5State5valueESaIS3_EE19_M_get_Tp_allocatorEv(ptr noundef nonnull align 8 dereferenceable(80) %0) #2 comdat align 2 {
  %2 = alloca ptr, align 8
  store ptr %0, ptr %2, align 8, !tbaa !138
  %3 = load ptr, ptr %2, align 8
  %4 = getelementptr inbounds nuw %"class.std::_Deque_base", ptr %3, i32 0, i32 0
  ret ptr %4
}

; Function Attrs: mustprogress nounwind uwtable
define linkonce_odr void @_ZNSt5dequeIN4YAML14EmitFromEvents5State5valueESaIS3_EE8pop_backEv(ptr noundef nonnull align 8 dereferenceable(80) %0) #2 comdat align 2 personality ptr @__gxx_personality_v0 {
  %2 = alloca ptr, align 8
  store ptr %0, ptr %2, align 8, !tbaa !132
  %3 = load ptr, ptr %2, align 8
  %4 = getelementptr inbounds nuw %"class.std::_Deque_base", ptr %3, i32 0, i32 0
  %5 = getelementptr inbounds nuw %"struct.std::_Deque_base<YAML::EmitFromEvents::State::value, std::allocator<YAML::EmitFromEvents::State::value>>::_Deque_impl_data", ptr %4, i32 0, i32 3
  %6 = getelementptr inbounds nuw %"struct.std::_Deque_iterator", ptr %5, i32 0, i32 0
  %7 = load ptr, ptr %6, align 8, !tbaa !165
  %8 = getelementptr inbounds nuw %"class.std::_Deque_base", ptr %3, i32 0, i32 0
  %9 = getelementptr inbounds nuw %"struct.std::_Deque_base<YAML::EmitFromEvents::State::value, std::allocator<YAML::EmitFromEvents::State::value>>::_Deque_impl_data", ptr %8, i32 0, i32 3
  %10 = getelementptr inbounds nuw %"struct.std::_Deque_iterator", ptr %9, i32 0, i32 1
  %11 = load ptr, ptr %10, align 8, !tbaa !164
  %12 = icmp ne ptr %7, %11
  br i1 %12, label %13, label %24

13:                                               ; preds = %1
  %14 = getelementptr inbounds nuw %"class.std::_Deque_base", ptr %3, i32 0, i32 0
  %15 = getelementptr inbounds nuw %"struct.std::_Deque_base<YAML::EmitFromEvents::State::value, std::allocator<YAML::EmitFromEvents::State::value>>::_Deque_impl_data", ptr %14, i32 0, i32 3
  %16 = getelementptr inbounds nuw %"struct.std::_Deque_iterator", ptr %15, i32 0, i32 0
  %17 = load ptr, ptr %16, align 8, !tbaa !165
  %18 = getelementptr inbounds i32, ptr %17, i32 -1
  store ptr %18, ptr %16, align 8, !tbaa !165
  %19 = call noundef nonnull align 1 dereferenceable(1) ptr @_ZNSt11_Deque_baseIN4YAML14EmitFromEvents5State5valueESaIS3_EE19_M_get_Tp_allocatorEv(ptr noundef nonnull align 8 dereferenceable(80) %3) #16
  %20 = getelementptr inbounds nuw %"class.std::_Deque_base", ptr %3, i32 0, i32 0
  %21 = getelementptr inbounds nuw %"struct.std::_Deque_base<YAML::EmitFromEvents::State::value, std::allocator<YAML::EmitFromEvents::State::value>>::_Deque_impl_data", ptr %20, i32 0, i32 3
  %22 = getelementptr inbounds nuw %"struct.std::_Deque_iterator", ptr %21, i32 0, i32 0
  %23 = load ptr, ptr %22, align 8, !tbaa !165
  call void @_ZNSt16allocator_traitsISaIN4YAML14EmitFromEvents5State5valueEEE7destroyIS3_EEvRS4_PT_(ptr noundef nonnull align 1 dereferenceable(1) %19, ptr noundef %23) #16
  br label %26

24:                                               ; preds = %1
  invoke void @_ZNSt5dequeIN4YAML14EmitFromEvents5State5valueESaIS3_EE15_M_pop_back_auxEv(ptr noundef nonnull align 8 dereferenceable(80) %3)
          to label %25 unwind label %27

25:                                               ; preds = %24
  br label %26

26:                                               ; preds = %25, %13
  ret void

27:                                               ; preds = %24
  %28 = landingpad { ptr, i32 }
          catch ptr null
  %29 = extractvalue { ptr, i32 } %28, 0
  call void @__clang_call_terminate(ptr %29) #18
  unreachable
}

; Function Attrs: mustprogress nounwind uwtable
define linkonce_odr void @_ZNSt5stackIN4YAML14EmitFromEvents5State5valueESt5dequeIS3_SaIS3_EEE3popEv(ptr noundef nonnull align 8 dereferenceable(80) %0) #2 comdat align 2 {
  %2 = alloca ptr, align 8
  store ptr %0, ptr %2, align 8, !tbaa !14
  %3 = load ptr, ptr %2, align 8
  %4 = getelementptr inbounds nuw %"class.std::stack", ptr %3, i32 0, i32 0
  call void @_ZNSt5dequeIN4YAML14EmitFromEvents5State5valueESaIS3_EE8pop_backEv(ptr noundef nonnull align 8 dereferenceable(80) %4) #16
  ret void
}

; Function Attrs: inlinehint mustprogress uwtable
define linkonce_odr noundef nonnull align 8 dereferenceable(72) ptr @_ZN4YAMLlsERNS_7EmitterENS_13EMITTER_MANIPE(ptr noundef nonnull align 8 dereferenceable(72) %0, i32 noundef %1) #4 comdat {
  %3 = alloca ptr, align 8
  %4 = alloca i32, align 4
  store ptr %0, ptr %3, align 8, !tbaa !8
  store i32 %1, ptr %4, align 4, !tbaa !47
  %5 = load ptr, ptr %3, align 8, !tbaa !8
  %6 = load i32, ptr %4, align 4, !tbaa !47
  %7 = call noundef nonnull align 8 dereferenceable(72) ptr @_ZN4YAML7Emitter13SetLocalValueENS_13EMITTER_MANIPE(ptr noundef nonnull align 8 dereferenceable(72) %5, i32 noundef %6)
  ret ptr %7
}

; Function Attrs: mustprogress uwtable
define void @_ZN4YAML14EmitFromEvents8OnMapEndEv(ptr noundef nonnull align 8 dereferenceable(96) %0) unnamed_addr #0 align 2 {
  %2 = alloca ptr, align 8
  store ptr %0, ptr %2, align 8, !tbaa !3
  %3 = load ptr, ptr %2, align 8
  %4 = getelementptr inbounds nuw %"class.YAML::EmitFromEvents", ptr %3, i32 0, i32 1
  %5 = load ptr, ptr %4, align 8, !tbaa !20
  %6 = call noundef nonnull align 8 dereferenceable(72) ptr @_ZN4YAMLlsERNS_7EmitterENS_13EMITTER_MANIPE(ptr noundef nonnull align 8 dereferenceable(72) %5, i32 noundef 31)
  %7 = getelementptr inbounds nuw %"class.YAML::EmitFromEvents", ptr %3, i32 0, i32 2
  call void @_ZNSt5stackIN4YAML14EmitFromEvents5State5valueESt5dequeIS3_SaIS3_EEE3popEv(ptr noundef nonnull align 8 dereferenceable(80) %7)
  ret void
}